target datalayout = "e-m:e-p270:32:32-p271:32:32-p272:64:64-i64:64-i128:128-f80:128-n8:16:32:64-S128"
target triple = "x86_64-pc-linux-gnu"

@.str.14 = private unnamed_addr constant [26 x i8] c"../openssl/test/rpktest.c\00", align 1
@.str.106 = private unnamed_addr constant [35 x i8] c"rpk_verify_server_cb: ok=%d err=%d\00", align 1

; Function Attrs: nounwind uwtable
define internal i32 @rpk_verify_server_cb(i32 noundef %0, ptr noundef %1) #0 {
  %3 = alloca i32, align 4
  %4 = alloca i32, align 4
  %5 = alloca ptr, align 8
  %6 = alloca i32, align 4
  %7 = alloca i32, align 4
  store i32 %0, ptr %4, align 4, !tbaa !11
  store ptr %1, ptr %5, align 8, !tbaa !27
  call void @llvm.lifetime.start.p0(i64 4, ptr %6) #5
  %8 = load ptr, ptr %5, align 8, !tbaa !27
  %9 = call i32 @X509_STORE_CTX_get_error(ptr noundef %8)
  store i32 %9, ptr %6, align 4, !tbaa !11
  %10 = load ptr, ptr %5, align 8, !tbaa !27
  %11 = call ptr @X509_STORE_CTX_get0_rpk(ptr noundef %10)
  %12 = icmp ne ptr %11, null
  br i1 %12, label %13, label %20

13:                                               ; preds = %2
  %14 = load i32, ptr %6, align 4, !tbaa !11
  %15 = icmp ne i32 %14, 0
  br i1 %15, label %16, label %19

16:                                               ; preds = %13
  %17 = load i32, ptr %4, align 4, !tbaa !11
  %18 = load i32, ptr %6, align 4, !tbaa !11
  call void (ptr, i32, ptr, ...) @test_info(ptr noundef @.str.14, i32 noundef 59, ptr noundef @.str.106, i32 noundef %17, i32 noundef %18)
  store i32 0, ptr %3, align 4
  store i32 1, ptr %7, align 4
  br label %21

19:                                               ; preds = %13
  br label %20

20:                                               ; preds = %19, %2
  store i32 1, ptr %3, align 4
  store i32 1, ptr %7, align 4
  br label %21

21:                                               ; preds = %20, %16
  call void @llvm.lifetime.end.p0(i64 4, ptr %6) #5
  %22 = load i32, ptr %3, align 4
  ret i32 %22
}