; Function Attrs: nounwind uwtable
define internal range(i32 0, 2) i32 @rpk_verify_server_cb(i32 noundef %0, ptr noundef %1) #1 {
  %3 = tail call i32 @X509_STORE_CTX_get_error(ptr noundef %1) #5
  %4 = tail call ptr @X509_STORE_CTX_get0_rpk(ptr noundef %1) #5
  %5 = icmp ne ptr %4, null
  %6 = icmp ne i32 %3, 0
  %or.cond = select i1 %5, i1 %6, i1 false
  br i1 %or.cond, label %7, label %8

7:                                                ; preds = %2
  tail call void (ptr, i32, ptr, ...) @test_info(ptr noundef nonnull @.str.14, i32 noundef 59, ptr noundef nonnull @.str.106, i32 noundef %0, i32 noundef %3) #5
  br label %8

8:                                                ; preds = %2, %7
  %.0 = phi i32 [ 0, %7 ], [ 1, %2 ]
  ret i32 %.0
}